; Function Attrs: mustprogress uwtable
define hidden void @_ZNK19OpenColorIO_v2_5dev27Renderer_ACES_RGB_TO_JMh_205applyEPKvPvl(ptr noundef nonnull align 8 dereferenceable(124) %0, ptr noundef readonly captures(none) %1, ptr noundef writeonly captures(none) %2, i64 noundef %3) unnamed_addr #11 align 2 {
  %5 = alloca %"struct.std::array", align 4
  %6 = alloca %"struct.std::array", align 4
  %7 = getelementptr inbounds nuw i8, ptr %0, i64 8
  %8 = load i8, ptr %7, align 8, !tbaa !102, !range !98, !noundef !99
  %9 = trunc nuw i8 %8 to i1
  %10 = icmp sgt i64 %3, 0
  br i1 %9, label %11, label %30

11:                                               ; preds = %4
  br i1 %10, label %.lr.ph.i, label %_ZNK19OpenColorIO_v2_5dev27Renderer_ACES_RGB_TO_JMh_203fwdEPKvPvl.exit

.lr.ph.i:                                         ; preds = %11
  %12 = getelementptr inbounds nuw i8, ptr %6, i64 4
  %13 = getelementptr inbounds nuw i8, ptr %6, i64 8
  %14 = getelementptr inbounds nuw i8, ptr %0, i64 12
  br label %15

15:                                               ; preds = %15, %.lr.ph.i
  %.019.i = phi ptr [ %1, %.lr.ph.i ], [ %27, %15 ]
  %.01518.i = phi ptr [ %2, %.lr.ph.i ], [ %28, %15 ]
  %.01617.i = phi i64 [ 0, %.lr.ph.i ], [ %29, %15 ]
  call void @llvm.lifetime.start.p0(i64 12, ptr nonnull %6) #28
  %16 = load float, ptr %.019.i, align 4, !tbaa !13
  store float %16, ptr %6, align 4, !tbaa !13
  %17 = getelementptr inbounds nuw i8, ptr %.019.i, i64 4
  %18 = load float, ptr %17, align 4, !tbaa !13
  store float %18, ptr %12, align 4, !tbaa !13
  %19 = getelementptr inbounds nuw i8, ptr %.019.i, i64 8
  %20 = load float, ptr %19, align 4, !tbaa !13
  store float %20, ptr %13, align 4, !tbaa !13
  %21 = call { <2 x float>, float } @_ZN19OpenColorIO_v2_5dev5ACES210RGB_to_JMhERKSt5arrayIfLm3EERKNS0_9JMhParamsE(ptr noundef nonnull align 4 dereferenceable(12) %6, ptr noundef nonnull align 4 dereferenceable(112) %14)
  %.fca.0.extract.i = extractvalue { <2 x float>, float } %21, 0
  %.fca.1.extract.i = extractvalue { <2 x float>, float } %21, 1
  call void @llvm.lifetime.end.p0(i64 12, ptr nonnull %6) #28
  %.sroa.0.0.vec.extract.i = extractelement <2 x float> %.fca.0.extract.i, i64 0
  store float %.sroa.0.0.vec.extract.i, ptr %.01518.i, align 4, !tbaa !13
  %.sroa.0.4.vec.extract.i = extractelement <2 x float> %.fca.0.extract.i, i64 1
  %22 = getelementptr inbounds nuw i8, ptr %.01518.i, i64 4
  store float %.sroa.0.4.vec.extract.i, ptr %22, align 4, !tbaa !13
  %23 = getelementptr inbounds nuw i8, ptr %.01518.i, i64 8
  store float %.fca.1.extract.i, ptr %23, align 4, !tbaa !13
  %24 = getelementptr inbounds nuw i8, ptr %.019.i, i64 12
  %25 = load float, ptr %24, align 4, !tbaa !13
  %26 = getelementptr inbounds nuw i8, ptr %.01518.i, i64 12
  store float %25, ptr %26, align 4, !tbaa !13
  %27 = getelementptr inbounds nuw i8, ptr %.019.i, i64 16
  %28 = getelementptr inbounds nuw i8, ptr %.01518.i, i64 16
  %29 = add nuw nsw i64 %.01617.i, 1
  %exitcond.not.i = icmp eq i64 %29, %3
  br i1 %exitcond.not.i, label %_ZNK19OpenColorIO_v2_5dev27Renderer_ACES_RGB_TO_JMh_203fwdEPKvPvl.exit, label %15, !llvm.loop !104

30:                                               ; preds = %4
  br i1 %10, label %.lr.ph.i6, label %_ZNK19OpenColorIO_v2_5dev27Renderer_ACES_RGB_TO_JMh_203fwdEPKvPvl.exit

.lr.ph.i6:                                        ; preds = %30
  %31 = getelementptr inbounds nuw i8, ptr %5, i64 4
  %32 = getelementptr inbounds nuw i8, ptr %5, i64 8
  %33 = getelementptr inbounds nuw i8, ptr %0, i64 12
  br label %34

34:                                               ; preds = %34, %.lr.ph.i6
  %.019.i7 = phi ptr [ %1, %.lr.ph.i6 ], [ %46, %34 ]
  %.01518.i8 = phi ptr [ %2, %.lr.ph.i6 ], [ %47, %34 ]
  %.01617.i9 = phi i64 [ 0, %.lr.ph.i6 ], [ %48, %34 ]
  call void @llvm.lifetime.start.p0(i64 12, ptr nonnull %5) #28
  %35 = load float, ptr %.019.i7, align 4, !tbaa !13
  store float %35, ptr %5, align 4, !tbaa !13
  %36 = getelementptr inbounds nuw i8, ptr %.019.i7, i64 4
  %37 = load float, ptr %36, align 4, !tbaa !13
  store float %37, ptr %31, align 4, !tbaa !13
  %38 = getelementptr inbounds nuw i8, ptr %.019.i7, i64 8
  %39 = load float, ptr %38, align 4, !tbaa !13
  store float %39, ptr %32, align 4, !tbaa !13
  %40 = call { <2 x float>, float } @_ZN19OpenColorIO_v2_5dev5ACES210JMh_to_RGBERKSt5arrayIfLm3EERKNS0_9JMhParamsE(ptr noundef nonnull align 4 dereferenceable(12) %5, ptr noundef nonnull align 4 dereferenceable(112) %33)
  %.fca.0.extract.i10 = extractvalue { <2 x float>, float } %40, 0
  %.fca.1.extract.i11 = extractvalue { <2 x float>, float } %40, 1
  call void @llvm.lifetime.end.p0(i64 12, ptr nonnull %5) #28
  %.sroa.0.0.vec.extract.i12 = extractelement <2 x float> %.fca.0.extract.i10, i64 0
  store float %.sroa.0.0.vec.extract.i12, ptr %.01518.i8, align 4, !tbaa !13
  %.sroa.0.4.vec.extract.i13 = extractelement <2 x float> %.fca.0.extract.i10, i64 1
  %41 = getelementptr inbounds nuw i8, ptr %.01518.i8, i64 4
  store float %.sroa.0.4.vec.extract.i13, ptr %41, align 4, !tbaa !13
  %42 = getelementptr inbounds nuw i8, ptr %.01518.i8, i64 8
  store float %.fca.1.extract.i11, ptr %42, align 4, !tbaa !13
  %43 = getelementptr inbounds nuw i8, ptr %.019.i7, i64 12
  %44 = load float, ptr %43, align 4, !tbaa !13
  %45 = getelementptr inbounds nuw i8, ptr %.01518.i8, i64 12
  store float %44, ptr %45, align 4, !tbaa !13
  %46 = getelementptr inbounds nuw i8, ptr %.019.i7, i64 16
  %47 = getelementptr inbounds nuw i8, ptr %.01518.i8, i64 16
  %48 = add nuw nsw i64 %.01617.i9, 1
  %exitcond.not.i14 = icmp eq i64 %48, %3
  br i1 %exitcond.not.i14, label %_ZNK19OpenColorIO_v2_5dev27Renderer_ACES_RGB_TO_JMh_203fwdEPKvPvl.exit, label %34, !llvm.loop !105

_ZNK19OpenColorIO_v2_5dev27Renderer_ACES_RGB_TO_JMh_203fwdEPKvPvl.exit: ; preds = %34, %15, %30, %11
  ret void
}